target datalayout = "e-m:e-p270:32:32-p271:32:32-p272:64:64-i64:64-i128:128-f80:128-n8:16:32:64-S128"
target triple = "x86_64-pc-linux-gnu"

%struct.prov_aes_hmac_sha_ctx_st = type { %struct.prov_cipher_ctx_st, %struct.aes_key_st, i64, %union.anon.0, ptr, i32, i32, i64, i64, i64 }
%struct.prov_cipher_ctx_st = type { [16 x i8], [16 x i8], [16 x i8], ptr, %union.anon, i32, i64, i64, i64, i64, i32, i8, i32, ptr, i32, i64, i32, i64, i32, ptr, ptr, ptr }
%union.anon = type { ptr }
%struct.aes_key_st = type { [60 x i32], i32 }
%union.anon.0 = type { i32, [12 x i8] }
%struct.prov_aes_hmac_sha1_ctx_st = type { %struct.prov_aes_hmac_sha_ctx_st, %struct.SHAstate_st, %struct.SHAstate_st, %struct.SHAstate_st }
%struct.SHAstate_st = type { i32, i32, i32, i32, i32, i32, i32, [16 x i32], i32 }

; Function Attrs: nounwind uwtable
define internal i32 @aesni_cbc_hmac_sha1_init_key(ptr noundef %0, ptr noundef %1, i64 noundef %2) #0 {
  %4 = alloca ptr, align 8
  %5 = alloca ptr, align 8
  %6 = alloca i64, align 8
  %7 = alloca i32, align 4
  %8 = alloca ptr, align 8
  %9 = alloca ptr, align 8
  store ptr %0, ptr %4, align 8, !tbaa !7
  store ptr %1, ptr %5, align 8, !tbaa !10
  store i64 %2, ptr %6, align 8, !tbaa !12
  call void @llvm.lifetime.start.p0(i64 4, ptr %7) #7
  call void @llvm.lifetime.start.p0(i64 8, ptr %8) #7
  %10 = load ptr, ptr %4, align 8, !tbaa !7
  store ptr %10, ptr %8, align 8, !tbaa !14
  call void @llvm.lifetime.start.p0(i64 8, ptr %9) #7
  %11 = load ptr, ptr %4, align 8, !tbaa !7
  store ptr %11, ptr %9, align 8, !tbaa !16
  %12 = load ptr, ptr %8, align 8, !tbaa !14
  %13 = getelementptr inbounds nuw %struct.prov_aes_hmac_sha_ctx_st, ptr %12, i32 0, i32 0
  %14 = getelementptr inbounds nuw %struct.prov_cipher_ctx_st, ptr %13, i32 0, i32 11
  %15 = load i8, ptr %14, align 4
  %16 = lshr i8 %15, 1
  %17 = and i8 %16, 1
  %18 = zext i8 %17 to i32
  %19 = icmp ne i32 %18, 0
  br i1 %19, label %20, label %28

20:                                               ; preds = %3
  %21 = load ptr, ptr %5, align 8, !tbaa !10
  %22 = load i64, ptr %6, align 8, !tbaa !12
  %23 = mul i64 %22, 8
  %24 = trunc i64 %23 to i32
  %25 = load ptr, ptr %8, align 8, !tbaa !14
  %26 = getelementptr inbounds nuw %struct.prov_aes_hmac_sha_ctx_st, ptr %25, i32 0, i32 1
  %27 = call i32 @aesni_set_encrypt_key(ptr noundef %21, i32 noundef %24, ptr noundef %26)
  store i32 %27, ptr %7, align 4, !tbaa !3
  br label %36

28:                                               ; preds = %3
  %29 = load ptr, ptr %5, align 8, !tbaa !10
  %30 = load i64, ptr %6, align 8, !tbaa !12
  %31 = mul i64 %30, 8
  %32 = trunc i64 %31 to i32
  %33 = load ptr, ptr %8, align 8, !tbaa !14
  %34 = getelementptr inbounds nuw %struct.prov_aes_hmac_sha_ctx_st, ptr %33, i32 0, i32 1
  %35 = call i32 @aesni_set_decrypt_key(ptr noundef %29, i32 noundef %32, ptr noundef %34)
  store i32 %35, ptr %7, align 4, !tbaa !3
  br label %36

36:                                               ; preds = %28, %20
  %37 = load ptr, ptr %9, align 8, !tbaa !16
  %38 = getelementptr inbounds nuw %struct.prov_aes_hmac_sha1_ctx_st, ptr %37, i32 0, i32 1
  %39 = call i32 @SHA1_Init(ptr noundef %38)
  %40 = load ptr, ptr %9, align 8, !tbaa !16
  %41 = getelementptr inbounds nuw %struct.prov_aes_hmac_sha1_ctx_st, ptr %40, i32 0, i32 2
  %42 = load ptr, ptr %9, align 8, !tbaa !16
  %43 = getelementptr inbounds nuw %struct.prov_aes_hmac_sha1_ctx_st, ptr %42, i32 0, i32 1
  call void @llvm.memcpy.p0.p0.i64(ptr align 8 %41, ptr align 8 %43, i64 96, i1 false), !tbaa.struct !18
  %44 = load ptr, ptr %9, align 8, !tbaa !16
  %45 = getelementptr inbounds nuw %struct.prov_aes_hmac_sha1_ctx_st, ptr %44, i32 0, i32 3
  %46 = load ptr, ptr %9, align 8, !tbaa !16
  %47 = getelementptr inbounds nuw %struct.prov_aes_hmac_sha1_ctx_st, ptr %46, i32 0, i32 1
  call void @llvm.memcpy.p0.p0.i64(ptr align 8 %45, ptr align 8 %47, i64 96, i1 false), !tbaa.struct !18
  %48 = load ptr, ptr %8, align 8, !tbaa !14
  %49 = getelementptr inbounds nuw %struct.prov_aes_hmac_sha_ctx_st, ptr %48, i32 0, i32 2
  store i64 -1, ptr %49, align 8, !tbaa !20
  %50 = load ptr, ptr %4, align 8, !tbaa !7
  %51 = getelementptr inbounds nuw %struct.prov_cipher_ctx_st, ptr %50, i32 0, i32 16
  store i32 1, ptr %51, align 8, !tbaa !27
  %52 = load ptr, ptr %4, align 8, !tbaa !7
  %53 = getelementptr inbounds nuw %struct.prov_cipher_ctx_st, ptr %52, i32 0, i32 17
  store i64 36, ptr %53, align 8, !tbaa !28
  %54 = load i32, ptr %7, align 4, !tbaa !3
  %55 = icmp slt i32 %54, 0
  %56 = select i1 %55, i32 0, i32 1
  call void @llvm.lifetime.end.p0(i64 8, ptr %9) #7
  call void @llvm.lifetime.end.p0(i64 8, ptr %8) #7
  call void @llvm.lifetime.end.p0(i64 4, ptr %7) #7
  ret i32 %56
}