; Function Attrs: nounwind uwtable
define internal range(i32 0, 2) i32 @aesni_cbc_hmac_sha1_init_key(ptr noundef %0, ptr noundef %1, i64 noundef %2) #2 {
  %4 = getelementptr inbounds nuw i8, ptr %0, i64 108
  %5 = load i8, ptr %4, align 4
  %6 = and i8 %5, 2
  %.not = icmp eq i8 %6, 0
  %.tr = trunc i64 %2 to i32
  %7 = shl i32 %.tr, 3
  %8 = getelementptr inbounds nuw i8, ptr %0, i64 192
  br i1 %.not, label %11, label %9

9:                                                ; preds = %3
  %10 = tail call i32 @aesni_set_encrypt_key(ptr noundef %1, i32 noundef %7, ptr noundef nonnull %8) #9
  br label %13

11:                                               ; preds = %3
  %12 = tail call i32 @aesni_set_decrypt_key(ptr noundef %1, i32 noundef %7, ptr noundef nonnull %8) #9
  br label %13

13:                                               ; preds = %11, %9
  %.0 = phi i32 [ %10, %9 ], [ %12, %11 ]
  %14 = getelementptr inbounds nuw i8, ptr %0, i64 504
  %15 = tail call i32 @SHA1_Init(ptr noundef nonnull %14) #9
  %16 = getelementptr inbounds nuw i8, ptr %0, i64 600
  tail call void @llvm.memcpy.p0.p0.i64(ptr noundef nonnull align 8 dereferenceable(96) %16, ptr noundef nonnull align 8 dereferenceable(96) %14, i64 96, i1 false), !tbaa.struct !7
  %17 = getelementptr inbounds nuw i8, ptr %0, i64 696
  tail call void @llvm.memcpy.p0.p0.i64(ptr noundef nonnull align 8 dereferenceable(96) %17, ptr noundef nonnull align 8 dereferenceable(96) %14, i64 96, i1 false), !tbaa.struct !7
  %18 = getelementptr inbounds nuw i8, ptr %0, i64 440
  store i64 -1, ptr %18, align 8, !tbaa !9
  %19 = getelementptr inbounds nuw i8, ptr %0, i64 144
  store i32 1, ptr %19, align 8, !tbaa !19
  %20 = getelementptr inbounds nuw i8, ptr %0, i64 152
  store i64 36, ptr %20, align 8, !tbaa !20
  %21 = icmp sgt i32 %.0, -1
  %22 = zext i1 %21 to i32
  ret i32 %22
}